
Obstacle Avoidance Robot V1.0.elf:     file format elf32-avr

Sections:
Idx Name          Size      VMA       LMA       File off  Algn
  0 .text         00000494  00000000  00000000  00000094  2**1
                  CONTENTS, ALLOC, LOAD, READONLY, CODE
  1 .data         00000014  00800060  00000494  00000528  2**0
                  CONTENTS, ALLOC, LOAD, DATA
  2 .bss          00000010  00800074  00800074  0000053c  2**0
                  ALLOC
  3 .comment      00000060  00000000  00000000  0000053c  2**0
                  CONTENTS, READONLY
  4 .note.gnu.avr.deviceinfo 0000003c  00000000  00000000  0000059c  2**2
                  CONTENTS, READONLY
  5 .debug_aranges 00000190  00000000  00000000  000005d8  2**0
                  CONTENTS, READONLY, DEBUGGING
  6 .debug_info   000016ff  00000000  00000000  00000768  2**0
                  CONTENTS, READONLY, DEBUGGING
  7 .debug_abbrev 00000bb4  00000000  00000000  00001e67  2**0
                  CONTENTS, READONLY, DEBUGGING
  8 .debug_line   00000edf  00000000  00000000  00002a1b  2**0
                  CONTENTS, READONLY, DEBUGGING
  9 .debug_frame  00000440  00000000  00000000  000038fc  2**2
                  CONTENTS, READONLY, DEBUGGING
 10 .debug_str    00000aa3  00000000  00000000  00003d3c  2**0
                  CONTENTS, READONLY, DEBUGGING
 11 .debug_loc    00001527  00000000  00000000  000047df  2**0
                  CONTENTS, READONLY, DEBUGGING
 12 .debug_ranges 00000138  00000000  00000000  00005d06  2**0
                  CONTENTS, READONLY, DEBUGGING

Disassembly of section .text:

00000000 <__vectors>:
   0:	0c 94 2a 00 	jmp	0x54	; 0x54 <__ctors_end>
   4:	0c 94 63 01 	jmp	0x2c6	; 0x2c6 <__vector_1>
   8:	0c 94 8c 01 	jmp	0x318	; 0x318 <__vector_2>
   c:	0c 94 9b 01 	jmp	0x336	; 0x336 <__vector_3>
  10:	0c 94 47 00 	jmp	0x8e	; 0x8e <__bad_interrupt>
  14:	0c 94 ed 01 	jmp	0x3da	; 0x3da <__vector_5>
  18:	0c 94 47 00 	jmp	0x8e	; 0x8e <__bad_interrupt>
  1c:	0c 94 47 00 	jmp	0x8e	; 0x8e <__bad_interrupt>
  20:	0c 94 47 00 	jmp	0x8e	; 0x8e <__bad_interrupt>
  24:	0c 94 c4 01 	jmp	0x388	; 0x388 <__vector_9>
  28:	0c 94 47 00 	jmp	0x8e	; 0x8e <__bad_interrupt>
  2c:	0c 94 47 00 	jmp	0x8e	; 0x8e <__bad_interrupt>
  30:	0c 94 47 00 	jmp	0x8e	; 0x8e <__bad_interrupt>
  34:	0c 94 47 00 	jmp	0x8e	; 0x8e <__bad_interrupt>
  38:	0c 94 47 00 	jmp	0x8e	; 0x8e <__bad_interrupt>
  3c:	0c 94 47 00 	jmp	0x8e	; 0x8e <__bad_interrupt>
  40:	0c 94 47 00 	jmp	0x8e	; 0x8e <__bad_interrupt>
  44:	0c 94 47 00 	jmp	0x8e	; 0x8e <__bad_interrupt>
  48:	0c 94 47 00 	jmp	0x8e	; 0x8e <__bad_interrupt>
  4c:	0c 94 47 00 	jmp	0x8e	; 0x8e <__bad_interrupt>
  50:	0c 94 47 00 	jmp	0x8e	; 0x8e <__bad_interrupt>

00000054 <__ctors_end>:
  54:	11 24       	eor	r1, r1
  56:	1f be       	out	0x3f, r1	; 63
  58:	cf e5       	ldi	r28, 0x5F	; 95
  5a:	d8 e0       	ldi	r29, 0x08	; 8
  5c:	de bf       	out	0x3e, r29	; 62
  5e:	cd bf       	out	0x3d, r28	; 61

00000060 <__do_copy_data>:
  60:	10 e0       	ldi	r17, 0x00	; 0
  62:	a0 e6       	ldi	r26, 0x60	; 96
  64:	b0 e0       	ldi	r27, 0x00	; 0
  66:	e4 e9       	ldi	r30, 0x94	; 148
  68:	f4 e0       	ldi	r31, 0x04	; 4
  6a:	02 c0       	rjmp	.+4      	; 0x70 <__do_copy_data+0x10>
  6c:	05 90       	lpm	r0, Z+
  6e:	0d 92       	st	X+, r0
  70:	a4 37       	cpi	r26, 0x74	; 116
  72:	b1 07       	cpc	r27, r17
  74:	d9 f7       	brne	.-10     	; 0x6c <__do_copy_data+0xc>

00000076 <__do_clear_bss>:
  76:	20 e0       	ldi	r18, 0x00	; 0
  78:	a4 e7       	ldi	r26, 0x74	; 116
  7a:	b0 e0       	ldi	r27, 0x00	; 0
  7c:	01 c0       	rjmp	.+2      	; 0x80 <.do_clear_bss_start>

0000007e <.do_clear_bss_loop>:
  7e:	1d 92       	st	X+, r1

00000080 <.do_clear_bss_start>:
  80:	a4 38       	cpi	r26, 0x84	; 132
  82:	b2 07       	cpc	r27, r18
  84:	e1 f7       	brne	.-8      	; 0x7e <.do_clear_bss_loop>
  86:	0e 94 49 00 	call	0x92	; 0x92 <main>
  8a:	0c 94 48 02 	jmp	0x490	; 0x490 <_exit>

0000008e <__bad_interrupt>:
  8e:	0c 94 00 00 	jmp	0	; 0x0 <__vectors>

00000092 <main>:
#include "APP/app.h"


int main(void)
{
	DIO_Init();
  92:	0e 94 4e 01 	call	0x29c	; 0x29c <DIO_Init>
  96:	ff cf       	rjmp	.-2      	; 0x96 <main+0x4>

00000098 <DIO_INITPIN>:
  98:	98 2f       	mov	r25, r24
  9a:	96 95       	lsr	r25
  9c:	96 95       	lsr	r25
  9e:	96 95       	lsr	r25
  a0:	95 30       	cpi	r25, 0x05	; 5
  a2:	08 f0       	brcs	.+2      	; 0xa6 <DIO_INITPIN+0xe>
  a4:	f9 c0       	rjmp	.+498    	; 0x298 <DIO_INITPIN+0x200>
  a6:	87 70       	andi	r24, 0x07	; 7
  a8:	61 30       	cpi	r22, 0x01	; 1
  aa:	31 f0       	breq	.+12     	; 0xb8 <DIO_INITPIN+0x20>
  ac:	08 f4       	brcc	.+2      	; 0xb0 <DIO_INITPIN+0x18>
  ae:	a4 c0       	rjmp	.+328    	; 0x1f8 <DIO_INITPIN+0x160>
  b0:	62 30       	cpi	r22, 0x02	; 2
  b2:	09 f4       	brne	.+2      	; 0xb6 <DIO_INITPIN+0x1e>
  b4:	51 c0       	rjmp	.+162    	; 0x158 <DIO_INITPIN+0xc0>
  b6:	ef c0       	rjmp	.+478    	; 0x296 <DIO_INITPIN+0x1fe>
  b8:	91 30       	cpi	r25, 0x01	; 1
  ba:	c1 f0       	breq	.+48     	; 0xec <DIO_INITPIN+0x54>
  bc:	28 f0       	brcs	.+10     	; 0xc8 <DIO_INITPIN+0x30>
  be:	92 30       	cpi	r25, 0x02	; 2
  c0:	39 f1       	breq	.+78     	; 0x110 <DIO_INITPIN+0x78>
  c2:	93 30       	cpi	r25, 0x03	; 3
  c4:	b9 f1       	breq	.+110    	; 0x134 <DIO_INITPIN+0x9c>
  c6:	e7 c0       	rjmp	.+462    	; 0x296 <DIO_INITPIN+0x1fe>
  c8:	4a b3       	in	r20, 0x1a	; 26
  ca:	21 e0       	ldi	r18, 0x01	; 1
  cc:	30 e0       	ldi	r19, 0x00	; 0
  ce:	b9 01       	movw	r22, r18
  d0:	02 c0       	rjmp	.+4      	; 0xd6 <DIO_INITPIN+0x3e>
  d2:	66 0f       	add	r22, r22
  d4:	77 1f       	adc	r23, r23
  d6:	8a 95       	dec	r24
  d8:	e2 f7       	brpl	.-8      	; 0xd2 <DIO_INITPIN+0x3a>
  da:	cb 01       	movw	r24, r22
  dc:	80 95       	com	r24
  de:	94 2f       	mov	r25, r20
  e0:	98 23       	and	r25, r24
  e2:	9a bb       	out	0x1a, r25	; 26
  e4:	9b b3       	in	r25, 0x1b	; 27
  e6:	89 23       	and	r24, r25
  e8:	8b bb       	out	0x1b, r24	; 27
  ea:	d5 c0       	rjmp	.+426    	; 0x296 <DIO_INITPIN+0x1fe>
  ec:	47 b3       	in	r20, 0x17	; 23
  ee:	21 e0       	ldi	r18, 0x01	; 1
  f0:	30 e0       	ldi	r19, 0x00	; 0
  f2:	b9 01       	movw	r22, r18
  f4:	02 c0       	rjmp	.+4      	; 0xfa <DIO_INITPIN+0x62>
  f6:	66 0f       	add	r22, r22
  f8:	77 1f       	adc	r23, r23
  fa:	8a 95       	dec	r24
  fc:	e2 f7       	brpl	.-8      	; 0xf6 <DIO_INITPIN+0x5e>
  fe:	cb 01       	movw	r24, r22
 100:	80 95       	com	r24
 102:	94 2f       	mov	r25, r20
 104:	98 23       	and	r25, r24
 106:	97 bb       	out	0x17, r25	; 23
 108:	98 b3       	in	r25, 0x18	; 24
 10a:	89 23       	and	r24, r25
 10c:	88 bb       	out	0x18, r24	; 24
 10e:	c3 c0       	rjmp	.+390    	; 0x296 <DIO_INITPIN+0x1fe>
 110:	44 b3       	in	r20, 0x14	; 20
 112:	21 e0       	ldi	r18, 0x01	; 1
 114:	30 e0       	ldi	r19, 0x00	; 0
 116:	b9 01       	movw	r22, r18
 118:	02 c0       	rjmp	.+4      	; 0x11e <DIO_INITPIN+0x86>
 11a:	66 0f       	add	r22, r22
 11c:	77 1f       	adc	r23, r23
 11e:	8a 95       	dec	r24
 120:	e2 f7       	brpl	.-8      	; 0x11a <DIO_INITPIN+0x82>
 122:	cb 01       	movw	r24, r22
 124:	80 95       	com	r24
 126:	94 2f       	mov	r25, r20
 128:	98 23       	and	r25, r24
 12a:	94 bb       	out	0x14, r25	; 20
 12c:	95 b3       	in	r25, 0x15	; 21
 12e:	89 23       	and	r24, r25
 130:	85 bb       	out	0x15, r24	; 21
 132:	b1 c0       	rjmp	.+354    	; 0x296 <DIO_INITPIN+0x1fe>
 134:	41 b3       	in	r20, 0x11	; 17
 136:	21 e0       	ldi	r18, 0x01	; 1
 138:	30 e0       	ldi	r19, 0x00	; 0
 13a:	b9 01       	movw	r22, r18
 13c:	02 c0       	rjmp	.+4      	; 0x142 <DIO_INITPIN+0xaa>
 13e:	66 0f       	add	r22, r22
 140:	77 1f       	adc	r23, r23
 142:	8a 95       	dec	r24
 144:	e2 f7       	brpl	.-8      	; 0x13e <DIO_INITPIN+0xa6>
 146:	cb 01       	movw	r24, r22
 148:	80 95       	com	r24
 14a:	94 2f       	mov	r25, r20
 14c:	98 23       	and	r25, r24
 14e:	91 bb       	out	0x11, r25	; 17
 150:	92 b3       	in	r25, 0x12	; 18
 152:	89 23       	and	r24, r25
 154:	82 bb       	out	0x12, r24	; 18
 156:	9f c0       	rjmp	.+318    	; 0x296 <DIO_INITPIN+0x1fe>
 158:	91 30       	cpi	r25, 0x01	; 1
 15a:	c1 f0       	breq	.+48     	; 0x18c <DIO_INITPIN+0xf4>
 15c:	28 f0       	brcs	.+10     	; 0x168 <DIO_INITPIN+0xd0>
 15e:	92 30       	cpi	r25, 0x02	; 2
 160:	39 f1       	breq	.+78     	; 0x1b0 <DIO_INITPIN+0x118>
 162:	93 30       	cpi	r25, 0x03	; 3
 164:	b9 f1       	breq	.+110    	; 0x1d4 <DIO_INITPIN+0x13c>
 166:	97 c0       	rjmp	.+302    	; 0x296 <DIO_INITPIN+0x1fe>
 168:	4a b3       	in	r20, 0x1a	; 26
 16a:	21 e0       	ldi	r18, 0x01	; 1
 16c:	30 e0       	ldi	r19, 0x00	; 0
 16e:	b9 01       	movw	r22, r18
 170:	02 c0       	rjmp	.+4      	; 0x176 <DIO_INITPIN+0xde>
 172:	66 0f       	add	r22, r22
 174:	77 1f       	adc	r23, r23
 176:	8a 95       	dec	r24
 178:	e2 f7       	brpl	.-8      	; 0x172 <DIO_INITPIN+0xda>
 17a:	cb 01       	movw	r24, r22
 17c:	96 2f       	mov	r25, r22
 17e:	90 95       	com	r25
 180:	94 23       	and	r25, r20
 182:	9a bb       	out	0x1a, r25	; 26
 184:	9b b3       	in	r25, 0x1b	; 27
 186:	89 2b       	or	r24, r25
 188:	8b bb       	out	0x1b, r24	; 27
 18a:	85 c0       	rjmp	.+266    	; 0x296 <DIO_INITPIN+0x1fe>
 18c:	47 b3       	in	r20, 0x17	; 23
 18e:	21 e0       	ldi	r18, 0x01	; 1
 190:	30 e0       	ldi	r19, 0x00	; 0
 192:	b9 01       	movw	r22, r18
 194:	02 c0       	rjmp	.+4      	; 0x19a <DIO_INITPIN+0x102>
 196:	66 0f       	add	r22, r22
 198:	77 1f       	adc	r23, r23
 19a:	8a 95       	dec	r24
 19c:	e2 f7       	brpl	.-8      	; 0x196 <DIO_INITPIN+0xfe>
 19e:	cb 01       	movw	r24, r22
 1a0:	96 2f       	mov	r25, r22
 1a2:	90 95       	com	r25
 1a4:	94 23       	and	r25, r20
 1a6:	97 bb       	out	0x17, r25	; 23
 1a8:	98 b3       	in	r25, 0x18	; 24
 1aa:	89 2b       	or	r24, r25
 1ac:	88 bb       	out	0x18, r24	; 24
 1ae:	73 c0       	rjmp	.+230    	; 0x296 <DIO_INITPIN+0x1fe>
 1b0:	44 b3       	in	r20, 0x14	; 20
 1b2:	21 e0       	ldi	r18, 0x01	; 1
 1b4:	30 e0       	ldi	r19, 0x00	; 0
 1b6:	b9 01       	movw	r22, r18
 1b8:	02 c0       	rjmp	.+4      	; 0x1be <DIO_INITPIN+0x126>
 1ba:	66 0f       	add	r22, r22
 1bc:	77 1f       	adc	r23, r23
 1be:	8a 95       	dec	r24
 1c0:	e2 f7       	brpl	.-8      	; 0x1ba <DIO_INITPIN+0x122>
 1c2:	cb 01       	movw	r24, r22
 1c4:	96 2f       	mov	r25, r22
 1c6:	90 95       	com	r25
 1c8:	94 23       	and	r25, r20
 1ca:	94 bb       	out	0x14, r25	; 20
 1cc:	95 b3       	in	r25, 0x15	; 21
 1ce:	89 2b       	or	r24, r25
 1d0:	85 bb       	out	0x15, r24	; 21
 1d2:	61 c0       	rjmp	.+194    	; 0x296 <DIO_INITPIN+0x1fe>
 1d4:	41 b3       	in	r20, 0x11	; 17
 1d6:	21 e0       	ldi	r18, 0x01	; 1
 1d8:	30 e0       	ldi	r19, 0x00	; 0
 1da:	b9 01       	movw	r22, r18
 1dc:	02 c0       	rjmp	.+4      	; 0x1e2 <DIO_INITPIN+0x14a>
 1de:	66 0f       	add	r22, r22
 1e0:	77 1f       	adc	r23, r23
 1e2:	8a 95       	dec	r24
 1e4:	e2 f7       	brpl	.-8      	; 0x1de <DIO_INITPIN+0x146>
 1e6:	cb 01       	movw	r24, r22
 1e8:	96 2f       	mov	r25, r22
 1ea:	90 95       	com	r25
 1ec:	94 23       	and	r25, r20
 1ee:	91 bb       	out	0x11, r25	; 17
 1f0:	92 b3       	in	r25, 0x12	; 18
 1f2:	89 2b       	or	r24, r25
 1f4:	82 bb       	out	0x12, r24	; 18
 1f6:	4f c0       	rjmp	.+158    	; 0x296 <DIO_INITPIN+0x1fe>
 1f8:	91 30       	cpi	r25, 0x01	; 1
 1fa:	c1 f0       	breq	.+48     	; 0x22c <DIO_INITPIN+0x194>
 1fc:	28 f0       	brcs	.+10     	; 0x208 <DIO_INITPIN+0x170>
 1fe:	92 30       	cpi	r25, 0x02	; 2
 200:	39 f1       	breq	.+78     	; 0x250 <DIO_INITPIN+0x1b8>
 202:	93 30       	cpi	r25, 0x03	; 3
 204:	b9 f1       	breq	.+110    	; 0x274 <DIO_INITPIN+0x1dc>
 206:	47 c0       	rjmp	.+142    	; 0x296 <DIO_INITPIN+0x1fe>
 208:	4b b3       	in	r20, 0x1b	; 27
 20a:	21 e0       	ldi	r18, 0x01	; 1
 20c:	30 e0       	ldi	r19, 0x00	; 0
 20e:	b9 01       	movw	r22, r18
 210:	02 c0       	rjmp	.+4      	; 0x216 <DIO_INITPIN+0x17e>
 212:	66 0f       	add	r22, r22
 214:	77 1f       	adc	r23, r23
 216:	8a 95       	dec	r24
 218:	e2 f7       	brpl	.-8      	; 0x212 <DIO_INITPIN+0x17a>
 21a:	cb 01       	movw	r24, r22
 21c:	96 2f       	mov	r25, r22
 21e:	90 95       	com	r25
 220:	94 23       	and	r25, r20
 222:	9b bb       	out	0x1b, r25	; 27
 224:	9a b3       	in	r25, 0x1a	; 26
 226:	89 2b       	or	r24, r25
 228:	8a bb       	out	0x1a, r24	; 26
 22a:	35 c0       	rjmp	.+106    	; 0x296 <DIO_INITPIN+0x1fe>
 22c:	48 b3       	in	r20, 0x18	; 24
 22e:	21 e0       	ldi	r18, 0x01	; 1
 230:	30 e0       	ldi	r19, 0x00	; 0
 232:	b9 01       	movw	r22, r18
 234:	02 c0       	rjmp	.+4      	; 0x23a <DIO_INITPIN+0x1a2>
 236:	66 0f       	add	r22, r22
 238:	77 1f       	adc	r23, r23
 23a:	8a 95       	dec	r24
 23c:	e2 f7       	brpl	.-8      	; 0x236 <DIO_INITPIN+0x19e>
 23e:	cb 01       	movw	r24, r22
 240:	96 2f       	mov	r25, r22
 242:	90 95       	com	r25
 244:	94 23       	and	r25, r20
 246:	98 bb       	out	0x18, r25	; 24
 248:	97 b3       	in	r25, 0x17	; 23
 24a:	89 2b       	or	r24, r25
 24c:	87 bb       	out	0x17, r24	; 23
 24e:	23 c0       	rjmp	.+70     	; 0x296 <DIO_INITPIN+0x1fe>
 250:	45 b3       	in	r20, 0x15	; 21
 252:	21 e0       	ldi	r18, 0x01	; 1
 254:	30 e0       	ldi	r19, 0x00	; 0
 256:	b9 01       	movw	r22, r18
 258:	02 c0       	rjmp	.+4      	; 0x25e <DIO_INITPIN+0x1c6>
 25a:	66 0f       	add	r22, r22
 25c:	77 1f       	adc	r23, r23
 25e:	8a 95       	dec	r24
 260:	e2 f7       	brpl	.-8      	; 0x25a <DIO_INITPIN+0x1c2>
 262:	cb 01       	movw	r24, r22
 264:	96 2f       	mov	r25, r22
 266:	90 95       	com	r25
 268:	94 23       	and	r25, r20
 26a:	95 bb       	out	0x15, r25	; 21
 26c:	94 b3       	in	r25, 0x14	; 20
 26e:	89 2b       	or	r24, r25
 270:	84 bb       	out	0x14, r24	; 20
 272:	11 c0       	rjmp	.+34     	; 0x296 <DIO_INITPIN+0x1fe>
 274:	42 b3       	in	r20, 0x12	; 18
 276:	21 e0       	ldi	r18, 0x01	; 1
 278:	30 e0       	ldi	r19, 0x00	; 0
 27a:	b9 01       	movw	r22, r18
 27c:	02 c0       	rjmp	.+4      	; 0x282 <DIO_INITPIN+0x1ea>
 27e:	66 0f       	add	r22, r22
 280:	77 1f       	adc	r23, r23
 282:	8a 95       	dec	r24
 284:	e2 f7       	brpl	.-8      	; 0x27e <DIO_INITPIN+0x1e6>
 286:	cb 01       	movw	r24, r22
 288:	96 2f       	mov	r25, r22
 28a:	90 95       	com	r25
 28c:	94 23       	and	r25, r20
 28e:	92 bb       	out	0x12, r25	; 18
 290:	91 b3       	in	r25, 0x11	; 17
 292:	89 2b       	or	r24, r25
 294:	81 bb       	out	0x11, r24	; 17
 296:	08 95       	ret
 298:	82 e0       	ldi	r24, 0x02	; 2
 29a:	08 95       	ret

0000029c <DIO_Init>:
 29c:	0f 93       	push	r16
 29e:	1f 93       	push	r17
 2a0:	cf 93       	push	r28
 2a2:	df 93       	push	r29
 2a4:	c0 e6       	ldi	r28, 0x60	; 96
 2a6:	d0 e0       	ldi	r29, 0x00	; 0
 2a8:	04 e7       	ldi	r16, 0x74	; 116
 2aa:	10 e0       	ldi	r17, 0x00	; 0
 2ac:	69 81       	ldd	r22, Y+1	; 0x01
 2ae:	88 81       	ld	r24, Y
 2b0:	0e 94 4c 00 	call	0x98	; 0x98 <DIO_INITPIN>
 2b4:	22 96       	adiw	r28, 0x02	; 2
 2b6:	c0 17       	cp	r28, r16
 2b8:	d1 07       	cpc	r29, r17
 2ba:	c1 f7       	brne	.-16     	; 0x2ac <DIO_Init+0x10>
 2bc:	df 91       	pop	r29
 2be:	cf 91       	pop	r28
 2c0:	1f 91       	pop	r17
 2c2:	0f 91       	pop	r16
 2c4:	08 95       	ret

000002c6 <__vector_1>:
 2c6:	1f 92       	push	r1
 2c8:	0f 92       	push	r0
 2ca:	0f b6       	in	r0, 0x3f	; 63
 2cc:	0f 92       	push	r0
 2ce:	11 24       	eor	r1, r1
 2d0:	2f 93       	push	r18
 2d2:	3f 93       	push	r19
 2d4:	4f 93       	push	r20
 2d6:	5f 93       	push	r21
 2d8:	6f 93       	push	r22
 2da:	7f 93       	push	r23
 2dc:	8f 93       	push	r24
 2de:	9f 93       	push	r25
 2e0:	af 93       	push	r26
 2e2:	bf 93       	push	r27
 2e4:	ef 93       	push	r30
 2e6:	ff 93       	push	r31
 2e8:	e0 91 77 00 	lds	r30, 0x0077	; 0x800077 <ptrf_INT_0>
 2ec:	f0 91 78 00 	lds	r31, 0x0078	; 0x800078 <ptrf_INT_0+0x1>
 2f0:	30 97       	sbiw	r30, 0x00	; 0
 2f2:	09 f0       	breq	.+2      	; 0x2f6 <__vector_1+0x30>
 2f4:	09 95       	icall
 2f6:	ff 91       	pop	r31
 2f8:	ef 91       	pop	r30
 2fa:	bf 91       	pop	r27
 2fc:	af 91       	pop	r26
 2fe:	9f 91       	pop	r25
 300:	8f 91       	pop	r24
 302:	7f 91       	pop	r23
 304:	6f 91       	pop	r22
 306:	5f 91       	pop	r21
 308:	4f 91       	pop	r20
 30a:	3f 91       	pop	r19
 30c:	2f 91       	pop	r18
 30e:	0f 90       	pop	r0
 310:	0f be       	out	0x3f, r0	; 63
 312:	0f 90       	pop	r0
 314:	1f 90       	pop	r1
 316:	18 95       	reti

00000318 <__vector_2>:
 318:	1f 92       	push	r1
 31a:	0f 92       	push	r0
 31c:	0f b6       	in	r0, 0x3f	; 63
 31e:	0f 92       	push	r0
 320:	11 24       	eor	r1, r1
 322:	8f 93       	push	r24
 324:	81 e0       	ldi	r24, 0x01	; 1
 326:	80 93 74 00 	sts	0x0074, r24	; 0x800074 <__data_end>
 32a:	8f 91       	pop	r24
 32c:	0f 90       	pop	r0
 32e:	0f be       	out	0x3f, r0	; 63
 330:	0f 90       	pop	r0
 332:	1f 90       	pop	r1
 334:	18 95       	reti

00000336 <__vector_3>:
 336:	1f 92       	push	r1
 338:	0f 92       	push	r0
 33a:	0f b6       	in	r0, 0x3f	; 63
 33c:	0f 92       	push	r0
 33e:	11 24       	eor	r1, r1
 340:	2f 93       	push	r18
 342:	3f 93       	push	r19
 344:	4f 93       	push	r20
 346:	5f 93       	push	r21
 348:	6f 93       	push	r22
 34a:	7f 93       	push	r23
 34c:	8f 93       	push	r24
 34e:	9f 93       	push	r25
 350:	af 93       	push	r26
 352:	bf 93       	push	r27
 354:	ef 93       	push	r30
 356:	ff 93       	push	r31
 358:	e0 91 75 00 	lds	r30, 0x0075	; 0x800075 <ptrf_INT_2>
 35c:	f0 91 76 00 	lds	r31, 0x0076	; 0x800076 <ptrf_INT_2+0x1>
 360:	30 97       	sbiw	r30, 0x00	; 0
 362:	09 f0       	breq	.+2      	; 0x366 <__vector_3+0x30>
 364:	09 95       	icall
 366:	ff 91       	pop	r31
 368:	ef 91       	pop	r30
 36a:	bf 91       	pop	r27
 36c:	af 91       	pop	r26
 36e:	9f 91       	pop	r25
 370:	8f 91       	pop	r24
 372:	7f 91       	pop	r23
 374:	6f 91       	pop	r22
 376:	5f 91       	pop	r21
 378:	4f 91       	pop	r20
 37a:	3f 91       	pop	r19
 37c:	2f 91       	pop	r18
 37e:	0f 90       	pop	r0
 380:	0f be       	out	0x3f, r0	; 63
 382:	0f 90       	pop	r0
 384:	1f 90       	pop	r1
 386:	18 95       	reti

00000388 <__vector_9>:
 388:	1f 92       	push	r1
 38a:	0f 92       	push	r0
 38c:	0f b6       	in	r0, 0x3f	; 63
 38e:	0f 92       	push	r0
 390:	11 24       	eor	r1, r1
 392:	2f 93       	push	r18
 394:	3f 93       	push	r19
 396:	4f 93       	push	r20
 398:	5f 93       	push	r21
 39a:	6f 93       	push	r22
 39c:	7f 93       	push	r23
 39e:	8f 93       	push	r24
 3a0:	9f 93       	push	r25
 3a2:	af 93       	push	r26
 3a4:	bf 93       	push	r27
 3a6:	ef 93       	push	r30
 3a8:	ff 93       	push	r31
 3aa:	e0 91 79 00 	lds	r30, 0x0079	; 0x800079 <Timer1_OVF_Fptr>
 3ae:	f0 91 7a 00 	lds	r31, 0x007A	; 0x80007a <Timer1_OVF_Fptr+0x1>
 3b2:	30 97       	sbiw	r30, 0x00	; 0
 3b4:	09 f0       	breq	.+2      	; 0x3b8 <__vector_9+0x30>
 3b6:	09 95       	icall
 3b8:	ff 91       	pop	r31
 3ba:	ef 91       	pop	r30
 3bc:	bf 91       	pop	r27
 3be:	af 91       	pop	r26
 3c0:	9f 91       	pop	r25
 3c2:	8f 91       	pop	r24
 3c4:	7f 91       	pop	r23
 3c6:	6f 91       	pop	r22
 3c8:	5f 91       	pop	r21
 3ca:	4f 91       	pop	r20
 3cc:	3f 91       	pop	r19
 3ce:	2f 91       	pop	r18
 3d0:	0f 90       	pop	r0
 3d2:	0f be       	out	0x3f, r0	; 63
 3d4:	0f 90       	pop	r0
 3d6:	1f 90       	pop	r1
 3d8:	18 95       	reti

000003da <__vector_5>:
 3da:	1f 92       	push	r1
 3dc:	0f 92       	push	r0
 3de:	0f b6       	in	r0, 0x3f	; 63
 3e0:	0f 92       	push	r0
 3e2:	11 24       	eor	r1, r1
 3e4:	4f 93       	push	r20
 3e6:	5f 93       	push	r21
 3e8:	6f 93       	push	r22
 3ea:	7f 93       	push	r23
 3ec:	8f 93       	push	r24
 3ee:	9f 93       	push	r25
 3f0:	af 93       	push	r26
 3f2:	bf 93       	push	r27
 3f4:	80 91 74 00 	lds	r24, 0x0074	; 0x800074 <__data_end>
 3f8:	81 30       	cpi	r24, 0x01	; 1
 3fa:	e9 f5       	brne	.+122    	; 0x476 <__EEPROM_REGION_LENGTH__+0x76>
 3fc:	80 91 7b 00 	lds	r24, 0x007B	; 0x80007b <ovf>
 400:	90 91 7c 00 	lds	r25, 0x007C	; 0x80007c <ovf+0x1>
 404:	a0 91 7d 00 	lds	r26, 0x007D	; 0x80007d <ovf+0x2>
 408:	b0 91 7e 00 	lds	r27, 0x007E	; 0x80007e <ovf+0x3>
 40c:	40 91 7f 00 	lds	r20, 0x007F	; 0x80007f <mode_ovf>
 410:	50 91 80 00 	lds	r21, 0x0080	; 0x800080 <mode_ovf+0x1>
 414:	60 91 81 00 	lds	r22, 0x0081	; 0x800081 <mode_ovf+0x2>
 418:	70 91 82 00 	lds	r23, 0x0082	; 0x800082 <mode_ovf+0x3>
 41c:	84 17       	cp	r24, r20
 41e:	95 07       	cpc	r25, r21
 420:	a6 07       	cpc	r26, r22
 422:	b7 07       	cpc	r27, r23
 424:	64 f4       	brge	.+24     	; 0x43e <__EEPROM_REGION_LENGTH__+0x3e>
 426:	01 96       	adiw	r24, 0x01	; 1
 428:	a1 1d       	adc	r26, r1
 42a:	b1 1d       	adc	r27, r1
 42c:	80 93 7b 00 	sts	0x007B, r24	; 0x80007b <ovf>
 430:	90 93 7c 00 	sts	0x007C, r25	; 0x80007c <ovf+0x1>
 434:	a0 93 7d 00 	sts	0x007D, r26	; 0x80007d <ovf+0x2>
 438:	b0 93 7e 00 	sts	0x007E, r27	; 0x80007e <ovf+0x3>
 43c:	1c c0       	rjmp	.+56     	; 0x476 <__EEPROM_REGION_LENGTH__+0x76>
 43e:	84 17       	cp	r24, r20
 440:	95 07       	cpc	r25, r21
 442:	a6 07       	cpc	r26, r22
 444:	b7 07       	cpc	r27, r23
 446:	b9 f4       	brne	.+46     	; 0x476 <__EEPROM_REGION_LENGTH__+0x76>
 448:	89 2b       	or	r24, r25
 44a:	8a 2b       	or	r24, r26
 44c:	8b 2b       	or	r24, r27
 44e:	99 f0       	breq	.+38     	; 0x476 <__EEPROM_REGION_LENGTH__+0x76>
 450:	10 92 7b 00 	sts	0x007B, r1	; 0x80007b <ovf>
 454:	10 92 7c 00 	sts	0x007C, r1	; 0x80007c <ovf+0x1>
 458:	10 92 7d 00 	sts	0x007D, r1	; 0x80007d <ovf+0x2>
 45c:	10 92 7e 00 	sts	0x007E, r1	; 0x80007e <ovf+0x3>
 460:	80 91 83 00 	lds	r24, 0x0083	; 0x800083 <car_mode>
 464:	88 30       	cpi	r24, 0x08	; 8
 466:	20 f4       	brcc	.+8      	; 0x470 <__EEPROM_REGION_LENGTH__+0x70>
 468:	8f 5f       	subi	r24, 0xFF	; 255
 46a:	80 93 83 00 	sts	0x0083, r24	; 0x800083 <car_mode>
 46e:	03 c0       	rjmp	.+6      	; 0x476 <__EEPROM_REGION_LENGTH__+0x76>
 470:	81 e0       	ldi	r24, 0x01	; 1
 472:	80 93 83 00 	sts	0x0083, r24	; 0x800083 <car_mode>
 476:	bf 91       	pop	r27
 478:	af 91       	pop	r26
 47a:	9f 91       	pop	r25
 47c:	8f 91       	pop	r24
 47e:	7f 91       	pop	r23
 480:	6f 91       	pop	r22
 482:	5f 91       	pop	r21
 484:	4f 91       	pop	r20
 486:	0f 90       	pop	r0
 488:	0f be       	out	0x3f, r0	; 63
 48a:	0f 90       	pop	r0
 48c:	1f 90       	pop	r1
 48e:	18 95       	reti

00000490 <_exit>:
 490:	f8 94       	cli

00000492 <__stop_program>:
 492:	ff cf       	rjmp	.-2      	; 0x492 <__stop_program>
